Certificate:
    Data:
        Version: 3 (0x2)
        Serial Number: 2 (0x2)
        Signature Algorithm: md5WithRSAEncryption
        Issuer: C=US, ST=Maryland, L=Columbia, O=Ozone3
        Validity
            Not Before: Jan 22 20:06:16 2009 GMT
            Not After : Jan 22 20:06:16 2010 GMT
        Subject: C=US, ST=Maryland, O=Ozone3, CN=Jetty
        Subject Public Key Info:
            Public Key Algorithm: rsaEncryption
            RSA Public Key: (1024 bit)
                Modulus (1024 bit):
                    00:ae:93:52:db:fd:ae:61:6c:00:31:54:94:6d:1f:
                    43:8b:e0:3f:12:3d:69:9f:8b:c3:37:a7:08:49:a8:
                    ca:8b:29:38:b9:07:2e:6f:8f:0b:a4:95:9e:80:52:
                    5c:d2:38:67:77:24:57:20:02:fb:5c:d7:e2:28:6a:
                    ea:62:ef:a8:21:ff:e0:48:4d:09:7e:51:b1:4a:06:
                    73:2e:9d:38:17:03:26:8b:fa:7f:f2:82:ca:a4:f3:
                    28:58:73:eb:2a:d6:ef:ca:d8:1c:1b:3b:6b:ea:31:
                    13:62:29:09:6b:a5:a7:0d:64:bb:d6:eb:56:a7:b6:
                    0e:fa:2e:9f:bd:cd:46:c2:97
                Exponent: 65537 (0x10001)
        X509v3 extensions:
            X509v3 Basic Constraints: 
                CA:FALSE
            Netscape Comment: 
                OpenSSL Generated Certificate
            X509v3 Subject Key Identifier: 
                E1:CD:F1:DE:2B:40:41:13:CC:40:B2:EA:B2:34:AA:04:D0:9A:9C:14
            X509v3 Authority Key Identifier: 
                keyid:FB:46:07:45:27:FB:99:2B:91:A6:A3:C8:64:F9:BB:42:0F:9C:6E:7F
                DirName:/C=US/ST=Maryland/L=Columbia/O=Ozone3
                serial:BB:1E:E7:F9:EF:BE:C5:A7

    Signature Algorithm: md5WithRSAEncryption
        29:1a:e3:3a:0b:c6:3e:ad:94:99:7b:1c:7b:82:12:9c:0a:15:
        1f:7e:0b:f9:d9:16:ed:27:09:c1:41:79:86:99:23:4d:43:14:
        fc:1e:ba:59:a1:02:a1:bb:5e:7e:18:bb:07:7a:99:94:5d:7a:
        7e:5e:3c:c4:71:fe:f0:97:f9:b9:2d:7d:a0:23:c9:30:6e:6b:
        dd:3e:53:e2:95:fb:4f:e4:0b:b1:cb:66:0b:65:a1:9c:ef:83:
        32:30:cd:b8:f8:9c:aa:06:e9:e2:39:14:f8:7c:01:53:77:9f:
        fb:d6:30:f9:f7:c4:c6:8b:d6:d0:67:44:66:8a:2d:76:e0:af:
        91:06
-----BEGIN CERTIFICATE-----
MIICzTCCAjagAwIBAgIBAjANBgkqhkiG9w0BAQQFADBEMQswCQYDVQQGEwJVUzER
MA8GA1UECBMITWFyeWxhbmQxETAPBgNVBAcTCENvbHVtYmlhMQ8wDQYDVQQKEwZP
em9uZTMwHhcNMDkwMTIyMjAwNjE2WhcNMTAwMTIyMjAwNjE2WjBBMQswCQYDVQQG
EwJVUzERMA8GA1UECBMITWFyeWxhbmQxDzANBgNVBAoTBk96b25lMzEOMAwGA1UE
AxMFSmV0dHkwgZ8wDQYJKoZIhvcNAQEBBQADgY0AMIGJAoGBAK6TUtv9rmFsADFU
lG0fQ4vgPxI9aZ+LwzenCEmoyospOLkHLm+PC6SVnoBSXNI4Z3ckVyAC+1zX4ihq
6mLvqCH/4EhNCX5RsUoGcy6dOBcDJov6f/KCyqTzKFhz6yrW78rYHBs7a+oxE2Ip
CWulpw1ku9brVqe2Dvoun73NRsKXAgMBAAGjgdEwgc4wCQYDVR0TBAIwADAsBglg
hkgBhvhCAQ0EHxYdT3BlblNTTCBHZW5lcmF0ZWQgQ2VydGlmaWNhdGUwHQYDVR0O
BBYEFOHN8d4rQEETzECy6rI0qgTQmpwUMHQGA1UdIwRtMGuAFPtGB0Un+5krkaaj
yGT5u0IPnG5/oUikRjBEMQswCQYDVQQGEwJVUzERMA8GA1UECBMITWFyeWxhbmQx
ETAPBgNVBAcTCENvbHVtYmlhMQ8wDQYDVQQKEwZPem9uZTOCCQC7Huf5777FpzAN
BgkqhkiG9w0BAQQFAAOBgQApGuM6C8Y+rZSZexx7ghKcChUffgv52RbtJwnBQXmG
mSNNQxT8HrpZoQKhu15+GLsHepmUXXp+XjzEcf7wl/m5LX2gI8kwbmvdPlPilftP
5Auxy2YLZaGc74MyMM24+JyqBuniORT4fAFTd5/71jD598TGi9bQZ0Rmii124K+R
Bg==
-----END CERTIFICATE-----
