Certificate:
    Data:
        Version: 3 (0x2)
        Serial Number: 3 (0x3)
        Signature Algorithm: md5WithRSAEncryption
        Issuer: C=US, ST=Maryland, L=Columbia, O=Ozone3
        Validity
            Not Before: Jan 26 02:54:07 2009 GMT
            Not After : Jan 26 02:54:07 2010 GMT
        Subject: C=US, ST=Maryland, O=Ozone3, CN=localhost
        Subject Public Key Info:
            Public Key Algorithm: rsaEncryption
            RSA Public Key: (1024 bit)
                Modulus (1024 bit):
                    00:bf:e8:0c:13:a3:e9:8e:5a:76:e8:7d:bc:36:ae:
                    46:16:5f:73:fe:ec:73:a8:d6:75:50:09:60:57:15:
                    07:1a:96:d8:9b:d6:71:42:a0:e8:d1:f1:14:32:b3:
                    79:c6:51:f6:00:5c:7a:e1:10:48:e4:80:13:24:4d:
                    c6:34:a4:57:35:95:5e:61:d0:55:11:ba:c6:31:74:
                    2e:a7:cf:6e:11:2c:c6:a8:ff:ea:ee:65:9b:f2:f0:
                    77:2d:2f:e7:7b:9f:91:84:7b:43:d8:5e:cd:c2:f1:
                    89:b4:4e:3a:b3:01:7c:82:3e:77:99:2d:cd:3b:ca:
                    b6:1f:78:ee:fa:43:2e:2e:bd
                Exponent: 65537 (0x10001)
        X509v3 extensions:
            X509v3 Basic Constraints: 
                CA:FALSE
            Netscape Comment: 
                OpenSSL Generated Certificate
            X509v3 Subject Key Identifier: 
                6E:9E:3D:40:16:97:A6:5E:87:19:C7:F7:C4:25:A5:66:51:4B:82:53
            X509v3 Authority Key Identifier: 
                keyid:FB:46:07:45:27:FB:99:2B:91:A6:A3:C8:64:F9:BB:42:0F:9C:6E:7F
                DirName:/C=US/ST=Maryland/L=Columbia/O=Ozone3
                serial:BB:1E:E7:F9:EF:BE:C5:A7

    Signature Algorithm: md5WithRSAEncryption
        5e:45:7d:c4:a0:45:50:5c:7e:49:ec:ac:29:04:91:8e:d9:8f:
        36:4b:b9:54:e9:93:db:98:5a:73:58:98:be:42:00:04:97:ad:
        e0:34:fe:c9:08:b3:70:e7:e6:b3:36:f6:1e:3f:ec:92:55:68:
        d9:12:87:aa:3e:40:7e:fa:6a:6b:57:cf:9f:4d:8d:cf:23:11:
        1a:f2:15:41:91:f3:8e:96:29:3e:19:26:90:be:09:44:1d:9f:
        04:f4:4c:bf:6a:46:74:8b:30:b0:61:73:47:9c:93:0f:6a:73:
        74:bb:3f:5a:a4:b1:92:93:84:92:49:50:b6:0a:de:c9:5f:bb:
        26:39
-----BEGIN CERTIFICATE-----
MIIC0TCCAjqgAwIBAgIBAzANBgkqhkiG9w0BAQQFADBEMQswCQYDVQQGEwJVUzER
MA8GA1UECBMITWFyeWxhbmQxETAPBgNVBAcTCENvbHVtYmlhMQ8wDQYDVQQKEwZP
em9uZTMwHhcNMDkwMTI2MDI1NDA3WhcNMTAwMTI2MDI1NDA3WjBFMQswCQYDVQQG
EwJVUzERMA8GA1UECBMITWFyeWxhbmQxDzANBgNVBAoTBk96b25lMzESMBAGA1UE
AxMJbG9jYWxob3N0MIGfMA0GCSqGSIb3DQEBAQUAA4GNADCBiQKBgQC/6AwTo+mO
Wnbofbw2rkYWX3P+7HOo1nVQCWBXFQcaltib1nFCoOjR8RQys3nGUfYAXHrhEEjk
gBMkTcY0pFc1lV5h0FURusYxdC6nz24RLMao/+ruZZvy8HctL+d7n5GEe0PYXs3C
8Ym0TjqzAXyCPneZLc07yrYfeO76Qy4uvQIDAQABo4HRMIHOMAkGA1UdEwQCMAAw
LAYJYIZIAYb4QgENBB8WHU9wZW5TU0wgR2VuZXJhdGVkIENlcnRpZmljYXRlMB0G
A1UdDgQWBBRunj1AFpemXocZx/fEJaVmUUuCUzB0BgNVHSMEbTBrgBT7RgdFJ/uZ
K5Gmo8hk+btCD5xuf6FIpEYwRDELMAkGA1UEBhMCVVMxETAPBgNVBAgTCE1hcnls
YW5kMREwDwYDVQQHEwhDb2x1bWJpYTEPMA0GA1UEChMGT3pvbmUzggkAux7n+e++
xacwDQYJKoZIhvcNAQEEBQADgYEAXkV9xKBFUFx+SeysKQSRjtmPNku5VOmT25ha
c1iYvkIABJet4DT+yQizcOfmszb2Hj/sklVo2RKHqj5Afvpqa1fPn02NzyMRGvIV
QZHzjpYpPhkmkL4JRB2fBPRMv2pGdIswsGFzR5yTD2pzdLs/WqSxkpOEkklQtgre
yV+7Jjk=
-----END CERTIFICATE-----
