Certificate:
    Data:
        Version: 3 (0x2)
        Serial Number: 4 (0x4)
        Signature Algorithm: md5WithRSAEncryption
        Issuer: C=US, ST=Maryland, L=Columbia, O=Ozone3
        Validity
            Not Before: Jan 26 03:08:38 2009 GMT
            Not After : Jan 26 03:08:38 2010 GMT
        Subject: C=US, ST=Maryland, O=Ozone3, CN=testUser1/emailAddress=testUser1@localhost
        Subject Public Key Info:
            Public Key Algorithm: rsaEncryption
            RSA Public Key: (1024 bit)
                Modulus (1024 bit):
                    00:ed:31:34:4c:61:09:52:14:92:1e:28:d9:05:6d:
                    67:1b:93:f6:a2:08:35:df:dd:26:49:1b:a8:bf:d1:
                    b8:54:60:ec:15:f6:f1:0b:02:f9:45:cf:82:ce:27:
                    51:9d:5d:49:fe:59:6f:2e:b7:f4:0e:87:15:84:a6:
                    9b:52:b6:e4:72:aa:33:04:ee:88:03:85:f7:41:fd:
                    9f:20:2c:52:34:63:b4:b1:4e:85:a7:75:64:51:c4:
                    13:0a:62:97:2a:04:21:10:45:b7:de:24:ce:e1:fd:
                    51:35:84:10:c2:aa:d2:7f:36:e5:45:ab:3b:1f:92:
                    90:76:24:7e:47:f4:55:68:97
                Exponent: 65537 (0x10001)
        X509v3 extensions:
            X509v3 Basic Constraints: 
                CA:FALSE
            Netscape Comment: 
                OpenSSL Generated Certificate
            X509v3 Subject Key Identifier: 
                EB:AE:18:DD:ED:B8:42:A4:11:DE:96:AC:49:D4:7D:6D:66:41:E4:81
            X509v3 Authority Key Identifier: 
                keyid:FB:46:07:45:27:FB:99:2B:91:A6:A3:C8:64:F9:BB:42:0F:9C:6E:7F
                DirName:/C=US/ST=Maryland/L=Columbia/O=Ozone3
                serial:BB:1E:E7:F9:EF:BE:C5:A7

    Signature Algorithm: md5WithRSAEncryption
        5d:3f:f3:14:bb:ca:bf:42:df:21:45:3b:1b:cf:5e:af:a3:9a:
        10:0f:5b:69:ea:8c:f5:de:db:35:11:03:78:21:f6:98:b0:6b:
        a8:99:06:db:93:3d:25:dc:d4:c4:88:de:bd:45:33:0e:eb:60:
        93:31:52:8e:ea:2d:67:0d:c6:31:2b:d0:16:96:8f:45:50:85:
        5c:69:cd:20:e3:d1:8e:6a:fc:54:6e:7b:6d:67:44:24:00:73:
        f4:db:c3:36:7a:b8:ff:ff:8d:45:35:14:7a:a5:be:a9:0d:78:
        f9:0b:b8:04:95:b4:8b:2a:09:92:ff:ae:0f:4d:94:4c:1d:b8:
        93:58
-----BEGIN CERTIFICATE-----
MIIC9TCCAl6gAwIBAgIBBDANBgkqhkiG9w0BAQQFADBEMQswCQYDVQQGEwJVUzER
MA8GA1UECBMITWFyeWxhbmQxETAPBgNVBAcTCENvbHVtYmlhMQ8wDQYDVQQKEwZP
em9uZTMwHhcNMDkwMTI2MDMwODM4WhcNMTAwMTI2MDMwODM4WjBpMQswCQYDVQQG
EwJVUzERMA8GA1UECBMITWFyeWxhbmQxDzANBgNVBAoTBk96b25lMzESMBAGA1UE
AxMJdGVzdFVzZXIxMSIwIAYJKoZIhvcNAQkBFhN0ZXN0VXNlcjFAbG9jYWxob3N0
MIGfMA0GCSqGSIb3DQEBAQUAA4GNADCBiQKBgQDtMTRMYQlSFJIeKNkFbWcbk/ai
CDXf3SZJG6i/0bhUYOwV9vELAvlFz4LOJ1GdXUn+WW8ut/QOhxWEpptStuRyqjME
7ogDhfdB/Z8gLFI0Y7SxToWndWRRxBMKYpcqBCEQRbfeJM7h/VE1hBDCqtJ/NuVF
qzsfkpB2JH5H9FVolwIDAQABo4HRMIHOMAkGA1UdEwQCMAAwLAYJYIZIAYb4QgEN
BB8WHU9wZW5TU0wgR2VuZXJhdGVkIENlcnRpZmljYXRlMB0GA1UdDgQWBBTrrhjd
7bhCpBHelqxJ1H1tZkHkgTB0BgNVHSMEbTBrgBT7RgdFJ/uZK5Gmo8hk+btCD5xu
f6FIpEYwRDELMAkGA1UEBhMCVVMxETAPBgNVBAgTCE1hcnlsYW5kMREwDwYDVQQH
EwhDb2x1bWJpYTEPMA0GA1UEChMGT3pvbmUzggkAux7n+e++xacwDQYJKoZIhvcN
AQEEBQADgYEAXT/zFLvKv0LfIUU7G89er6OaEA9baeqM9d7bNREDeCH2mLBrqJkG
25M9JdzUxIjevUUzDutgkzFSjuotZw3GMSvQFpaPRVCFXGnNIOPRjmr8VG57bWdE
JABz9NvDNnq4//+NRTUUeqW+qQ14+Qu4BJW0iyoJkv+uD02UTB24k1g=
-----END CERTIFICATE-----
